; Function Attrs: mustprogress uwtable
define hidden void @_ZN3sat7probing8finalizeEv(ptr noundef nonnull align 8 captures(none) dereferenceable(168) %0) local_unnamed_addr #3 align 2 personality ptr @__gxx_personality_v0 {
  %2 = getelementptr inbounds nuw i8, ptr %0, i64 16
  %3 = getelementptr inbounds nuw i8, ptr %0, i64 24
  %4 = load ptr, ptr %3, align 8, !tbaa !61
  %.not.i.i.i.i = icmp eq ptr %4, null
  br i1 %.not.i.i.i.i, label %_ZN6vectorIjLb0EjE8finalizeEv.exit.i.i, label %5

5:                                                ; preds = %1
  %6 = getelementptr inbounds i8, ptr %4, i64 -8
  tail call void @_ZN6memory10deallocateEPv(ptr noundef nonnull %6)
  br label %_ZN6vectorIjLb0EjE8finalizeEv.exit.i.i

_ZN6vectorIjLb0EjE8finalizeEv.exit.i.i:           ; preds = %5, %1
  store ptr null, ptr %3, align 8, !tbaa !61
  %7 = load ptr, ptr %2, align 8, !tbaa !62
  %.not.i.i1.i.i = icmp eq ptr %7, null
  br i1 %.not.i.i1.i.i, label %_ZN3sat11literal_set8finalizeEv.exit, label %8

8:                                                ; preds = %_ZN6vectorIjLb0EjE8finalizeEv.exit.i.i
  %9 = getelementptr inbounds i8, ptr %7, i64 -8
  tail call void @_ZN6memory10deallocateEPv(ptr noundef nonnull %9)
  br label %_ZN3sat11literal_set8finalizeEv.exit

_ZN3sat11literal_set8finalizeEv.exit:             ; preds = %_ZN6vectorIjLb0EjE8finalizeEv.exit.i.i, %8
  store ptr null, ptr %2, align 8, !tbaa !62
  %10 = getelementptr inbounds nuw i8, ptr %0, i64 32
  %11 = load ptr, ptr %10, align 8, !tbaa !53
  %.not.i.i = icmp eq ptr %11, null
  br i1 %.not.i.i, label %_ZN6vectorIN3sat7literalELb0EjE8finalizeEv.exit, label %12

12:                                               ; preds = %_ZN3sat11literal_set8finalizeEv.exit
  %13 = getelementptr inbounds i8, ptr %11, i64 -8
  tail call void @_ZN6memory10deallocateEPv(ptr noundef nonnull %13)
  br label %_ZN6vectorIN3sat7literalELb0EjE8finalizeEv.exit

_ZN6vectorIN3sat7literalELb0EjE8finalizeEv.exit:  ; preds = %_ZN3sat11literal_set8finalizeEv.exit, %12
  store ptr null, ptr %10, align 8, !tbaa !53
  %14 = getelementptr inbounds nuw i8, ptr %0, i64 72
  %15 = load ptr, ptr %14, align 8, !tbaa !59
  %.not.i.i1 = icmp eq ptr %15, null
  br i1 %.not.i.i1, label %_ZN6vectorIN3sat7probing11cache_entryELb1EjE8finalizeEv.exit, label %_ZNK6vectorIN3sat7probing11cache_entryELb1EjE4sizeEv.exit.i.i.i

_ZNK6vectorIN3sat7probing11cache_entryELb1EjE4sizeEv.exit.i.i.i: ; preds = %_ZN6vectorIN3sat7literalELb0EjE8finalizeEv.exit
  %16 = getelementptr inbounds i8, ptr %15, i64 -4
  %17 = load i32, ptr %16, align 4, !tbaa !52
  %.not6.i.i.i.i.i.i = icmp eq i32 %17, 0
  br i1 %.not6.i.i.i.i.i.i, label %_ZN6vectorIN3sat7probing11cache_entryELb1EjE16destroy_elementsEv.exit.i.i, label %.lr.ph.i.i.i.i.i.i

.lr.ph.i.i.i.i.i.i:                               ; preds = %_ZNK6vectorIN3sat7probing11cache_entryELb1EjE4sizeEv.exit.i.i.i, %_ZSt8_DestroyIN3sat7probing11cache_entryEEvPT_.exit.i.i.i.i.i.i
  %.08.i.i.i.i.i.i = phi i32 [ %26, %_ZSt8_DestroyIN3sat7probing11cache_entryEEvPT_.exit.i.i.i.i.i.i ], [ %17, %_ZNK6vectorIN3sat7probing11cache_entryELb1EjE4sizeEv.exit.i.i.i ]
  %.047.i.i.i.i.i.i = phi ptr [ %25, %_ZSt8_DestroyIN3sat7probing11cache_entryEEvPT_.exit.i.i.i.i.i.i ], [ %15, %_ZNK6vectorIN3sat7probing11cache_entryELb1EjE4sizeEv.exit.i.i.i ]
  %18 = getelementptr inbounds nuw i8, ptr %.047.i.i.i.i.i.i, i64 8
  %19 = load ptr, ptr %18, align 8, !tbaa !53
  %.not.i.i.i.i.i.i.i.i.i.i.i = icmp eq ptr %19, null
  br i1 %.not.i.i.i.i.i.i.i.i.i.i.i, label %_ZSt8_DestroyIN3sat7probing11cache_entryEEvPT_.exit.i.i.i.i.i.i, label %20

20:                                               ; preds = %.lr.ph.i.i.i.i.i.i
  %21 = getelementptr inbounds i8, ptr %19, i64 -8
  invoke void @_ZN6memory10deallocateEPv(ptr noundef nonnull %21)
          to label %_ZSt8_DestroyIN3sat7probing11cache_entryEEvPT_.exit.i.i.i.i.i.i unwind label %22

22:                                               ; preds = %20
  %23 = landingpad { ptr, i32 }
          catch ptr null
  %24 = extractvalue { ptr, i32 } %23, 0
  tail call void @__clang_call_terminate(ptr %24) #23
  unreachable

_ZSt8_DestroyIN3sat7probing11cache_entryEEvPT_.exit.i.i.i.i.i.i: ; preds = %20, %.lr.ph.i.i.i.i.i.i
  %25 = getelementptr inbounds nuw i8, ptr %.047.i.i.i.i.i.i, i64 16
  %26 = add i32 %.08.i.i.i.i.i.i, -1
  %.not.i.i.i.i.i.i = icmp eq i32 %26, 0
  br i1 %.not.i.i.i.i.i.i, label %_ZN6vectorIN3sat7probing11cache_entryELb1EjE16destroy_elementsEv.exit.loopexit.i.i, label %.lr.ph.i.i.i.i.i.i, !llvm.loop !60

_ZN6vectorIN3sat7probing11cache_entryELb1EjE16destroy_elementsEv.exit.loopexit.i.i: ; preds = %_ZSt8_DestroyIN3sat7probing11cache_entryEEvPT_.exit.i.i.i.i.i.i
  %.pre.i.i = load ptr, ptr %14, align 8, !tbaa !59
  br label %_ZN6vectorIN3sat7probing11cache_entryELb1EjE16destroy_elementsEv.exit.i.i

_ZN6vectorIN3sat7probing11cache_entryELb1EjE16destroy_elementsEv.exit.i.i: ; preds = %_ZN6vectorIN3sat7probing11cache_entryELb1EjE16destroy_elementsEv.exit.loopexit.i.i, %_ZNK6vectorIN3sat7probing11cache_entryELb1EjE4sizeEv.exit.i.i.i
  %27 = phi ptr [ %.pre.i.i, %_ZN6vectorIN3sat7probing11cache_entryELb1EjE16destroy_elementsEv.exit.loopexit.i.i ], [ %15, %_ZNK6vectorIN3sat7probing11cache_entryELb1EjE4sizeEv.exit.i.i.i ]
  %28 = getelementptr inbounds i8, ptr %27, i64 -8
  tail call void @_ZN6memory10deallocateEPv(ptr noundef nonnull %28)
  br label %_ZN6vectorIN3sat7probing11cache_entryELb1EjE8finalizeEv.exit

_ZN6vectorIN3sat7probing11cache_entryELb1EjE8finalizeEv.exit: ; preds = %_ZN6vectorIN3sat7literalELb0EjE8finalizeEv.exit, %_ZN6vectorIN3sat7probing11cache_entryELb1EjE16destroy_elementsEv.exit.i.i
  store ptr null, ptr %14, align 8, !tbaa !59
  ret void
}